target datalayout = "e-m:e-p270:32:32-p271:32:32-p272:64:64-i64:64-i128:128-f80:128-n8:16:32:64-S128"
target triple = "x86_64-pc-linux-gnu"

@.str.13 = private unnamed_addr constant [22 x i8] c"%s:%d  should be NULL\00", align 1

; Function Attrs: nounwind uwtable
define void @assert_null(ptr noundef %0, ptr noundef %1, i32 noundef %2) #0 {
  %4 = alloca ptr, align 8
  %5 = alloca ptr, align 8
  %6 = alloca i32, align 4
  store ptr %0, ptr %4, align 8, !tbaa !19
  store ptr %1, ptr %5, align 8, !tbaa !3
  store i32 %2, ptr %6, align 4, !tbaa !8
  %7 = load ptr, ptr %4, align 8, !tbaa !19
  %8 = icmp ne ptr %7, null
  br i1 %8, label %9, label %12

9:                                                ; preds = %3
  %10 = load ptr, ptr %5, align 8, !tbaa !3
  %11 = load i32, ptr %6, align 4, !tbaa !8
  call void (ptr, ...) @CTEST_ERR(ptr noundef @.str.13, ptr noundef %10, i32 noundef %11)
  br label %12

12:                                               ; preds = %9, %3
  ret void
}