; Function Attrs: nounwind uwtable
define void @assert_null(ptr noundef readnone captures(address_is_null) %0, ptr noundef %1, i32 noundef %2) local_unnamed_addr #6 {
  %.not = icmp eq ptr %0, null
  br i1 %.not, label %5, label %4

4:                                                ; preds = %3
  tail call void (ptr, ...) @CTEST_ERR(ptr noundef nonnull @.str.13, ptr noundef %1, i32 noundef %2)
  unreachable

5:                                                ; preds = %3
  ret void
}